target datalayout = "e-m:e-p270:32:32-p271:32:32-p272:64:64-i64:64-i128:128-f80:128-n8:16:32:64-S128"
target triple = "x86_64-pc-linux-gnu"

@stderr = external global ptr, align 8
@.str.26 = private unnamed_addr constant [68 x i8] c"gensprep: error parsing NormalizationCorrections.txt mapping at %s\0A\00", align 1
@.str.27 = private unnamed_addr constant [6 x i8] c"3.2.0\00", align 1
@.str.28 = private unnamed_addr constant [69 x i8] c"gensprep error parsing NormalizationCorrections.txt of U+%04lx - %s\0A\00", align 1

; Function Attrs: nounwind uwtable
define internal void @normalizationCorrectionsLineFn(ptr noundef %0, ptr noundef %1, i32 noundef %2, ptr noundef %3) #0 {
  %5 = alloca ptr, align 8
  %6 = alloca ptr, align 8
  %7 = alloca i32, align 4
  %8 = alloca ptr, align 8
  %9 = alloca [40 x i32], align 16
  %10 = alloca ptr, align 8
  %11 = alloca ptr, align 8
  %12 = alloca i32, align 4
  %13 = alloca i32, align 4
  %14 = alloca [4 x i8], align 1
  %15 = alloca [4 x i8], align 1
  store ptr %0, ptr %5, align 8, !tbaa !20
  store ptr %1, ptr %6, align 8, !tbaa !8
  store i32 %2, ptr %7, align 4, !tbaa !4
  store ptr %3, ptr %8, align 8, !tbaa !20
  call void @llvm.lifetime.start.p0(i64 160, ptr %9) #7
  call void @llvm.lifetime.start.p0(i64 8, ptr %10) #7
  call void @llvm.lifetime.start.p0(i64 8, ptr %11) #7
  call void @llvm.lifetime.start.p0(i64 4, ptr %12) #7
  call void @llvm.lifetime.start.p0(i64 4, ptr %13) #7
  call void @llvm.lifetime.start.p0(i64 4, ptr %14) #7
  call void @llvm.lifetime.start.p0(i64 4, ptr %15) #7
  %16 = load ptr, ptr %6, align 8, !tbaa !8
  %17 = getelementptr inbounds [2 x ptr], ptr %16, i64 0
  %18 = getelementptr inbounds [2 x ptr], ptr %17, i64 0, i64 0
  %19 = load ptr, ptr %18, align 8, !tbaa !12
  %20 = call i64 @strtoul(ptr noundef %19, ptr noundef %10, i32 noundef 16) #7
  %21 = trunc i64 %20 to i32
  store i32 %21, ptr %12, align 4, !tbaa !4
  %22 = load ptr, ptr %8, align 8, !tbaa !20
  %23 = load i32, ptr %22, align 4, !tbaa !4
  %24 = icmp sgt i32 %23, 0
  br i1 %24, label %25, label %34

25:                                               ; preds = %4
  %26 = load ptr, ptr @stderr, align 8, !tbaa !16
  %27 = load ptr, ptr %6, align 8, !tbaa !8
  %28 = getelementptr inbounds [2 x ptr], ptr %27, i64 0
  %29 = getelementptr inbounds [2 x ptr], ptr %28, i64 0, i64 0
  %30 = load ptr, ptr %29, align 8, !tbaa !12
  %31 = call i32 (ptr, ptr, ...) @fprintf(ptr noundef %26, ptr noundef @.str.26, ptr noundef %30) #7
  %32 = load ptr, ptr %8, align 8, !tbaa !20
  %33 = load i32, ptr %32, align 4, !tbaa !4
  call void @exit(i32 noundef %33) #10
  unreachable

34:                                               ; preds = %4
  %35 = load ptr, ptr %6, align 8, !tbaa !8
  %36 = getelementptr inbounds [2 x ptr], ptr %35, i64 1
  %37 = getelementptr inbounds [2 x ptr], ptr %36, i64 0, i64 0
  %38 = load ptr, ptr %37, align 8, !tbaa !12
  store ptr %38, ptr %11, align 8, !tbaa !12
  %39 = load ptr, ptr %11, align 8, !tbaa !12
  %40 = getelementptr inbounds [40 x i32], ptr %9, i64 0, i64 0
  %41 = load ptr, ptr %8, align 8, !tbaa !20
  %42 = call i32 @u_parseCodePoints(ptr noundef %39, ptr noundef %40, i32 noundef 40, ptr noundef %41)
  store i32 %42, ptr %13, align 4, !tbaa !4
  %43 = getelementptr inbounds [4 x i8], ptr %14, i64 0, i64 0
  %44 = load ptr, ptr %6, align 8, !tbaa !8
  %45 = getelementptr inbounds [2 x ptr], ptr %44, i64 3
  %46 = getelementptr inbounds [2 x ptr], ptr %45, i64 0, i64 0
  %47 = load ptr, ptr %46, align 8, !tbaa !12
  call void @u_versionFromString_77(ptr noundef %43, ptr noundef %47)
  %48 = getelementptr inbounds [4 x i8], ptr %15, i64 0, i64 0
  call void @u_versionFromString_77(ptr noundef %48, ptr noundef @.str.27)
  %49 = load ptr, ptr %8, align 8, !tbaa !20
  %50 = load i32, ptr %49, align 4, !tbaa !4
  %51 = icmp sgt i32 %50, 0
  br i1 %51, label %52, label %62

52:                                               ; preds = %34
  %53 = load ptr, ptr @stderr, align 8, !tbaa !16
  %54 = load i32, ptr %12, align 4, !tbaa !4
  %55 = zext i32 %54 to i64
  %56 = load ptr, ptr %8, align 8, !tbaa !20
  %57 = load i32, ptr %56, align 4, !tbaa !4
  %58 = call ptr @u_errorName_77(i32 noundef %57)
  %59 = call i32 (ptr, ptr, ...) @fprintf(ptr noundef %53, ptr noundef @.str.28, i64 noundef %55, ptr noundef %58) #7
  %60 = load ptr, ptr %8, align 8, !tbaa !20
  %61 = load i32, ptr %60, align 4, !tbaa !4
  call void @exit(i32 noundef %61) #10
  unreachable

62:                                               ; preds = %34
  %63 = getelementptr inbounds [4 x i8], ptr %14, i64 0, i64 0
  %64 = load i8, ptr %63, align 1, !tbaa !19
  %65 = zext i8 %64 to i32
  %66 = getelementptr inbounds [4 x i8], ptr %15, i64 0, i64 0
  %67 = load i8, ptr %66, align 1, !tbaa !19
  %68 = zext i8 %67 to i32
  %69 = icmp sgt i32 %65, %68
  br i1 %69, label %86, label %70

70:                                               ; preds = %62
  %71 = getelementptr inbounds [4 x i8], ptr %14, i64 0, i64 0
  %72 = load i8, ptr %71, align 1, !tbaa !19
  %73 = zext i8 %72 to i32
  %74 = getelementptr inbounds [4 x i8], ptr %15, i64 0, i64 0
  %75 = load i8, ptr %74, align 1, !tbaa !19
  %76 = zext i8 %75 to i32
  %77 = icmp eq i32 %73, %76
  br i1 %77, label %78, label %91

78:                                               ; preds = %70
  %79 = getelementptr inbounds [4 x i8], ptr %14, i64 0, i64 1
  %80 = load i8, ptr %79, align 1, !tbaa !19
  %81 = zext i8 %80 to i32
  %82 = getelementptr inbounds [4 x i8], ptr %15, i64 0, i64 1
  %83 = load i8, ptr %82, align 1, !tbaa !19
  %84 = zext i8 %83 to i32
  %85 = icmp sgt i32 %81, %84
  br i1 %85, label %86, label %91

86:                                               ; preds = %78, %62
  %87 = load i32, ptr %12, align 4, !tbaa !4
  %88 = getelementptr inbounds [40 x i32], ptr %9, i64 0, i64 0
  %89 = load i32, ptr %13, align 4, !tbaa !4
  %90 = load ptr, ptr %8, align 8, !tbaa !20
  call void @storeMapping(i32 noundef %87, ptr noundef %88, i32 noundef %89, i32 noundef 1, ptr noundef %90)
  br label %91

91:                                               ; preds = %86, %78, %70
  %92 = getelementptr inbounds [4 x i8], ptr %14, i64 0, i64 0
  call void @setUnicodeVersionNC(ptr noundef %92)
  call void @llvm.lifetime.end.p0(i64 4, ptr %15) #7
  call void @llvm.lifetime.end.p0(i64 4, ptr %14) #7
  call void @llvm.lifetime.end.p0(i64 4, ptr %13) #7
  call void @llvm.lifetime.end.p0(i64 4, ptr %12) #7
  call void @llvm.lifetime.end.p0(i64 8, ptr %11) #7
  call void @llvm.lifetime.end.p0(i64 8, ptr %10) #7
  call void @llvm.lifetime.end.p0(i64 160, ptr %9) #7
  ret void
}