; Function Attrs: nounwind uwtable
define internal void @normalizationCorrectionsLineFn(ptr readnone captures(none) %0, ptr noundef readonly captures(none) %1, i32 %2, ptr noundef %3) #0 {
  %5 = alloca [40 x i32], align 16
  %6 = alloca ptr, align 8
  %7 = alloca [4 x i8], align 1
  %8 = alloca [4 x i8], align 1
  call void @llvm.lifetime.start.p0(i64 160, ptr nonnull %5) #12
  call void @llvm.lifetime.start.p0(i64 8, ptr nonnull %6) #12
  call void @llvm.lifetime.start.p0(i64 4, ptr nonnull %7) #12
  call void @llvm.lifetime.start.p0(i64 4, ptr nonnull %8) #12
  %9 = load ptr, ptr %1, align 8, !tbaa !14
  %10 = call i64 @strtoul(ptr noundef %9, ptr noundef nonnull %6, i32 noundef 16) #12
  %11 = trunc i64 %10 to i32
  %12 = load i32, ptr %3, align 4, !tbaa !4
  %13 = icmp sgt i32 %12, 0
  br i1 %13, label %14, label %19

14:                                               ; preds = %4
  %15 = load ptr, ptr @stderr, align 8, !tbaa !12
  %16 = load ptr, ptr %1, align 8, !tbaa !14
  %17 = tail call i32 (ptr, ptr, ...) @fprintf(ptr noundef %15, ptr noundef nonnull @.str.26, ptr noundef %16) #13
  %18 = load i32, ptr %3, align 4, !tbaa !4
  tail call void @exit(i32 noundef %18) #16
  unreachable

19:                                               ; preds = %4
  %20 = getelementptr inbounds nuw i8, ptr %1, i64 16
  %21 = load ptr, ptr %20, align 8, !tbaa !14
  %22 = call i32 @u_parseCodePoints(ptr noundef %21, ptr noundef nonnull %5, i32 noundef 40, ptr noundef nonnull %3) #12
  %23 = getelementptr inbounds nuw i8, ptr %1, i64 48
  %24 = load ptr, ptr %23, align 8, !tbaa !14
  call void @u_versionFromString_77(ptr noundef nonnull %7, ptr noundef %24) #12
  call void @u_versionFromString_77(ptr noundef nonnull %8, ptr noundef nonnull @.str.27) #12
  %25 = load i32, ptr %3, align 4, !tbaa !4
  %26 = icmp sgt i32 %25, 0
  br i1 %26, label %27, label %33

27:                                               ; preds = %19
  %28 = load ptr, ptr @stderr, align 8, !tbaa !12
  %29 = and i64 %10, 4294967295
  %30 = call ptr @u_errorName_77(i32 noundef %25) #12
  %31 = call i32 (ptr, ptr, ...) @fprintf(ptr noundef %28, ptr noundef nonnull @.str.28, i64 noundef %29, ptr noundef %30) #13
  %32 = load i32, ptr %3, align 4, !tbaa !4
  call void @exit(i32 noundef %32) #16
  unreachable

33:                                               ; preds = %19
  %34 = load i8, ptr %7, align 1, !tbaa !16
  %35 = load i8, ptr %8, align 1, !tbaa !16
  %36 = icmp ugt i8 %34, %35
  br i1 %36, label %45, label %37

37:                                               ; preds = %33
  %38 = icmp eq i8 %34, %35
  br i1 %38, label %39, label %46

39:                                               ; preds = %37
  %40 = getelementptr inbounds nuw i8, ptr %7, i64 1
  %41 = load i8, ptr %40, align 1, !tbaa !16
  %42 = getelementptr inbounds nuw i8, ptr %8, i64 1
  %43 = load i8, ptr %42, align 1, !tbaa !16
  %44 = icmp ugt i8 %41, %43
  br i1 %44, label %45, label %46

45:                                               ; preds = %39, %33
  call void @storeMapping(i32 noundef %11, ptr noundef nonnull %5, i32 noundef %22, i32 noundef 1, ptr noundef nonnull %3) #12
  br label %46

46:                                               ; preds = %45, %39, %37
  call void @setUnicodeVersionNC(ptr noundef nonnull %7) #12
  call void @llvm.lifetime.end.p0(i64 4, ptr nonnull %8) #12
  call void @llvm.lifetime.end.p0(i64 4, ptr nonnull %7) #12
  call void @llvm.lifetime.end.p0(i64 8, ptr nonnull %6) #12
  call void @llvm.lifetime.end.p0(i64 160, ptr nonnull %5) #12
  ret void
}